target datalayout = "e-m:e-p270:32:32-p271:32:32-p272:64:64-i64:64-i128:128-f80:128-n8:16:32:64-S128"
target triple = "x86_64-pc-linux-gnu"

%"class.std::__cxx11::basic_string" = type { %"struct.std::__cxx11::basic_string<char>::_Alloc_hider", i64, %union.anon }
%"struct.std::__cxx11::basic_string<char>::_Alloc_hider" = type { ptr }
%union.anon = type { i64, [8 x i8] }

@_ZTIN2mu11ParserErrorE = linkonce_odr constant { ptr, ptr } { ptr getelementptr inbounds (ptr, ptr @_ZTVN10__cxxabiv117__class_type_infoE, i64 2), ptr @_ZTSN2mu11ParserErrorE }, comdat, align 8
@.str.7 = private unnamed_addr constant [47 x i8] c"Binary to integer conversion error (overflow).\00", align 1

; Function Attrs: mustprogress uwtable
define noundef i32 @_ZN2mu9ParserInt8IsBinValEPKcPiPd(ptr noundef %0, ptr noundef %1, ptr noundef %2) #1 align 2 personality ptr @__gxx_personality_v0 {
  %4 = alloca i32, align 4
  %5 = alloca ptr, align 8
  %6 = alloca ptr, align 8
  %7 = alloca ptr, align 8
  %8 = alloca i32, align 4
  %9 = alloca i32, align 4
  %10 = alloca i32, align 4
  %11 = alloca %"class.std::__cxx11::basic_string", align 8
  %12 = alloca ptr, align 8
  %13 = alloca i32, align 4
  %14 = alloca i1, align 1
  store ptr %0, ptr %5, align 8
  store ptr %1, ptr %6, align 8
  store ptr %2, ptr %7, align 8
  %15 = load ptr, ptr %5, align 8
  %16 = getelementptr inbounds i8, ptr %15, i64 0
  %17 = load i8, ptr %16, align 1
  %18 = sext i8 %17 to i32
  %19 = icmp ne i32 %18, 35
  br i1 %19, label %20, label %21

20:                                               ; preds = %3
  store i32 0, ptr %4, align 4
  br label %97

21:                                               ; preds = %3
  store i32 0, ptr %8, align 4
  store i32 32, ptr %9, align 4
  store i32 0, ptr %10, align 4
  store i32 0, ptr %10, align 4
  br label %22

22:                                               ; preds = %63, %21
  %23 = load ptr, ptr %5, align 8
  %24 = load i32, ptr %10, align 4
  %25 = add i32 %24, 1
  %26 = zext i32 %25 to i64
  %27 = getelementptr inbounds i8, ptr %23, i64 %26
  %28 = load i8, ptr %27, align 1
  %29 = sext i8 %28 to i32
  %30 = icmp eq i32 %29, 48
  br i1 %30, label %40, label %31

31:                                               ; preds = %22
  %32 = load ptr, ptr %5, align 8
  %33 = load i32, ptr %10, align 4
  %34 = add i32 %33, 1
  %35 = zext i32 %34 to i64
  %36 = getelementptr inbounds i8, ptr %32, i64 %35
  %37 = load i8, ptr %36, align 1
  %38 = sext i8 %37 to i32
  %39 = icmp eq i32 %38, 49
  br i1 %39, label %40, label %44

40:                                               ; preds = %31, %22
  %41 = load i32, ptr %10, align 4
  %42 = load i32, ptr %9, align 4
  %43 = icmp ult i32 %41, %42
  br label %44

44:                                               ; preds = %40, %31
  %45 = phi i1 [ false, %31 ], [ %43, %40 ]
  br i1 %45, label %46, label %66

46:                                               ; preds = %44
  %47 = load ptr, ptr %5, align 8
  %48 = load i32, ptr %10, align 4
  %49 = add i32 %48, 1
  %50 = zext i32 %49 to i64
  %51 = getelementptr inbounds i8, ptr %47, i64 %50
  %52 = load i8, ptr %51, align 1
  %53 = sext i8 %52 to i32
  %54 = icmp eq i32 %53, 49
  %55 = zext i1 %54 to i32
  %56 = load i32, ptr %9, align 4
  %57 = sub i32 %56, 1
  %58 = load i32, ptr %10, align 4
  %59 = sub i32 %57, %58
  %60 = shl i32 %55, %59
  %61 = load i32, ptr %8, align 4
  %62 = or i32 %61, %60
  store i32 %62, ptr %8, align 4
  br label %63

63:                                               ; preds = %46
  %64 = load i32, ptr %10, align 4
  %65 = add i32 %64, 1
  store i32 %65, ptr %10, align 4
  br label %22, !llvm.loop !9

66:                                               ; preds = %44
  %67 = load i32, ptr %10, align 4
  %68 = icmp eq i32 %67, 0
  br i1 %68, label %69, label %70

69:                                               ; preds = %66
  store i32 0, ptr %4, align 4
  br label %97

70:                                               ; preds = %66
  %71 = load i32, ptr %10, align 4
  %72 = load i32, ptr %9, align 4
  %73 = icmp eq i32 %71, %72
  br i1 %73, label %74, label %84

74:                                               ; preds = %70
  store i1 true, ptr %14, align 1
  %75 = call ptr @__cxa_allocate_exception(i64 112) #5
  call void @_ZNSt7__cxx1112basic_stringIcSt11char_traitsIcESaIcEEC1Ev(ptr noundef nonnull align 8 dereferenceable(32) %11) #5
  invoke void @_ZN2mu11ParserErrorC1EPKciRKNSt7__cxx1112basic_stringIcSt11char_traitsIcESaIcEEE(ptr noundef nonnull align 8 dereferenceable(112) %75, ptr noundef @.str.7, i32 noundef -1, ptr noundef nonnull align 8 dereferenceable(32) %11)
          to label %76 unwind label %77

76:                                               ; preds = %74
  store i1 false, ptr %14, align 1
  invoke void @__cxa_throw(ptr %75, ptr @_ZTIN2mu11ParserErrorE, ptr @_ZN2mu11ParserErrorD1Ev) #11
          to label %104 unwind label %77

77:                                               ; preds = %76, %74
  %78 = landingpad { ptr, i32 }
          cleanup
  %79 = extractvalue { ptr, i32 } %78, 0
  store ptr %79, ptr %12, align 8
  %80 = extractvalue { ptr, i32 } %78, 1
  store i32 %80, ptr %13, align 4
  call void @_ZNSt7__cxx1112basic_stringIcSt11char_traitsIcESaIcEED1Ev(ptr noundef nonnull align 8 dereferenceable(32) %11) #5
  %81 = load i1, ptr %14, align 1
  br i1 %81, label %82, label %83

82:                                               ; preds = %77
  call void @__cxa_free_exception(ptr %75) #5
  br label %83

83:                                               ; preds = %82, %77
  br label %99

84:                                               ; preds = %70
  %85 = load i32, ptr %8, align 4
  %86 = load i32, ptr %9, align 4
  %87 = load i32, ptr %10, align 4
  %88 = sub i32 %86, %87
  %89 = lshr i32 %85, %88
  %90 = uitofp i32 %89 to double
  %91 = load ptr, ptr %7, align 8
  store double %90, ptr %91, align 8
  %92 = load i32, ptr %10, align 4
  %93 = add i32 %92, 1
  %94 = load ptr, ptr %6, align 8
  %95 = load i32, ptr %94, align 4
  %96 = add i32 %95, %93
  store i32 %96, ptr %94, align 4
  store i32 1, ptr %4, align 4
  br label %97

97:                                               ; preds = %84, %69, %20
  %98 = load i32, ptr %4, align 4
  ret i32 %98

99:                                               ; preds = %83
  %100 = load ptr, ptr %12, align 8
  %101 = load i32, ptr %13, align 4
  %102 = insertvalue { ptr, i32 } poison, ptr %100, 0
  %103 = insertvalue { ptr, i32 } %102, i32 %101, 1
  resume { ptr, i32 } %103

104:                                              ; preds = %76
  unreachable
}