; Function Attrs: mustprogress uwtable
define noundef i32 @_ZN2mu9ParserInt8IsBinValEPKcPiPd(ptr nocapture noundef readonly %0, ptr nocapture noundef %1, ptr nocapture noundef writeonly %2) #1 align 2 personality ptr @__gxx_personality_v0 {
  %4 = alloca %"class.std::__cxx11::basic_string", align 8
  %5 = load i8, ptr %0, align 1
  %.not = icmp eq i8 %5, 35
  br i1 %.not, label %.preheader, label %.critedge.thread

.preheader:                                       ; preds = %3
  %6 = getelementptr inbounds i8, ptr %0, i64 1
  %7 = load i8, ptr %6, align 1
  %8 = and i8 %7, -2
  %switch30 = icmp eq i8 %8, 48
  br i1 %switch30, label %.lr.ph, label %.critedge.thread

.lr.ph:                                           ; preds = %.preheader, %.lr.ph
  %indvars.iv = phi i64 [ %indvars.iv.next, %.lr.ph ], [ 1, %.preheader ]
  %9 = phi i8 [ %16, %.lr.ph ], [ %7, %.preheader ]
  %.02632 = phi i32 [ %14, %.lr.ph ], [ 0, %.preheader ]
  %.02731 = phi i32 [ %19, %.lr.ph ], [ 0, %.preheader ]
  %10 = icmp eq i8 %9, 49
  %11 = zext i1 %10 to i32
  %12 = sub nuw nsw i32 31, %.02731
  %13 = shl nuw i32 %11, %12
  %14 = or i32 %13, %.02632
  %indvars.iv.next = add nuw nsw i64 %indvars.iv, 1
  %15 = getelementptr inbounds i8, ptr %0, i64 %indvars.iv.next
  %16 = load i8, ptr %15, align 1
  %17 = and i8 %16, -2
  %switch = icmp eq i8 %17, 48
  %18 = icmp ult i64 %indvars.iv, 32
  %or.cond = and i1 %18, %switch
  %19 = trunc nuw nsw i64 %indvars.iv to i32
  br i1 %or.cond, label %.lr.ph, label %.critedge, !llvm.loop !9

.critedge:                                        ; preds = %.lr.ph
  %cond = icmp eq i32 %19, 32
  br i1 %cond, label %20, label %27

20:                                               ; preds = %.critedge
  %21 = tail call ptr @__cxa_allocate_exception(i64 112) #12
  call void @_ZNSt7__cxx1112basic_stringIcSt11char_traitsIcESaIcEEC1Ev(ptr noundef nonnull align 8 dereferenceable(32) %4) #12
  invoke void @_ZN2mu11ParserErrorC1EPKciRKNSt7__cxx1112basic_stringIcSt11char_traitsIcESaIcEEE(ptr noundef nonnull align 8 dereferenceable(112) %21, ptr noundef nonnull @.str.7, i32 noundef -1, ptr noundef nonnull align 8 dereferenceable(32) %4)
          to label %22 unwind label %25

22:                                               ; preds = %20
  invoke void @__cxa_throw(ptr nonnull %21, ptr nonnull @_ZTIN2mu11ParserErrorE, ptr nonnull @_ZN2mu11ParserErrorD1Ev) #14
          to label %36 unwind label %23

23:                                               ; preds = %22
  %24 = landingpad { ptr, i32 }
          cleanup
  call void @_ZNSt7__cxx1112basic_stringIcSt11char_traitsIcESaIcEED1Ev(ptr noundef nonnull align 8 dereferenceable(32) %4) #12
  br label %34

25:                                               ; preds = %20
  %26 = landingpad { ptr, i32 }
          cleanup
  call void @_ZNSt7__cxx1112basic_stringIcSt11char_traitsIcESaIcEED1Ev(ptr noundef nonnull align 8 dereferenceable(32) %4) #12
  call void @__cxa_free_exception(ptr %21) #12
  br label %34

27:                                               ; preds = %.critedge
  %28 = trunc nuw nsw i64 %indvars.iv.next to i32
  %29 = sub nuw nsw i32 32, %19
  %30 = lshr i32 %14, %29
  %31 = uitofp i32 %30 to double
  store double %31, ptr %2, align 8
  %32 = load i32, ptr %1, align 4
  %33 = add i32 %32, %28
  store i32 %33, ptr %1, align 4
  br label %.critedge.thread

.critedge.thread:                                 ; preds = %.preheader, %3, %27
  %.025 = phi i32 [ 1, %27 ], [ 0, %3 ], [ 0, %.preheader ]
  ret i32 %.025

34:                                               ; preds = %23, %25
  %35 = phi { ptr, i32 } [ %24, %23 ], [ %26, %25 ]
  resume { ptr, i32 } %35

36:                                               ; preds = %22
  unreachable
}